; Function Attrs: nounwind uwtable
define internal void @webvtt_print(ptr noundef %0, ptr noundef %1, ...) unnamed_addr #1 {
  %3 = alloca [1 x %struct.__va_list_tag], align 16
  call void @llvm.lifetime.start.p0(i64 24, ptr nonnull %3) #6
  call void @llvm.va_start.p0(ptr nonnull %3)
  %4 = getelementptr inbounds nuw i8, ptr %0, i64 16
  call void @av_vbprintf(ptr noundef nonnull %4, ptr noundef %1, ptr noundef nonnull %3) #6
  call void @llvm.va_end.p0(ptr nonnull %3)
  call void @llvm.lifetime.end.p0(i64 24, ptr nonnull %3) #6
  ret void
}